; Function Attrs: null_pointer_is_valid sspstrong uwtable
define internal noundef i32 @dissect_aim_generic_motd(ptr noundef %0, ptr noundef %1, ptr noundef %2) #0 {
  %4 = load i32, ptr @hf_generic_motd_motdtype, align 4
  %5 = tail call ptr @proto_tree_add_item(ptr noundef %2, i32 noundef %4, ptr noundef %0, i32 noundef 0, i32 noundef 2, i32 noundef 0)
  %6 = tail call i32 @tvb_reported_length_remaining(ptr noundef %0, i32 noundef 2)
  %7 = icmp sgt i32 %6, 0
  br i1 %7, label %.lr.ph.i, label %dissect_aim_tlv_sequence.exit

.lr.ph.i:                                         ; preds = %3, %.lr.ph.i
  %.07.i = phi i32 [ %8, %.lr.ph.i ], [ 2, %3 ]
  %8 = tail call fastcc i32 @dissect_aim_tlv(ptr noundef %0, ptr noundef %1, i32 noundef %.07.i, ptr noundef %2, ptr noundef nonnull @aim_motd_tlvs)
  %9 = tail call i32 @tvb_reported_length_remaining(ptr noundef %0, i32 noundef %8)
  %10 = icmp sgt i32 %9, 0
  br i1 %10, label %.lr.ph.i, label %dissect_aim_tlv_sequence.exit, !llvm.loop !8

dissect_aim_tlv_sequence.exit:                    ; preds = %.lr.ph.i, %3
  %.0.lcssa.i = phi i32 [ 2, %3 ], [ %8, %.lr.ph.i ]
  ret i32 %.0.lcssa.i
}